(i__main__
NetworkGenerator
p0
(dp1
S'network_no'
p2
I6
sS'network_list'
p3
(lp4
(I1
(i__main__
Network
p5
(dp6
S'layers'
p7
(lp8
(lp9
I28
aI28
aI1
aa(lp10
I3
aI3
aI1
aI8
aa(lp11
I3
aI3
aI8
aI16
aa(lp12
I3
aI3
aI16
aI32
aa(lp13
I128
aa(lp14
I256
aa(lp15
I10
aasS'layer_type'
p16
(lp17
S'input'
p18
aS'conv'
p19
aS'max_pool'
p20
ag19
ag20
ag19
ag20
aS'hidden'
p21
ag21
aS'output'
p22
asS'network_file_path'
p23
S'/home/seulki/papers/MOBICOM_2020/VirtualBrain/network1/network1'
p24
sS'vnn'
p25
Nsg2
I1
sS'neuron_base_name'
p26
S'neuron_'
p27
sS'num_of_bias'
p28
cnumpy.core.multiarray
scalar
p29
(cnumpy
dtype
p30
(S'i8'
p31
I0
I1
tp32
Rp33
(I3
S'<'
p34
NNNI-1
I-1
I0
tp35
bS'\xc2\x01\x00\x00\x00\x00\x00\x00'
p36
tp37
Rp38
sS'num_of_neuron'
p39
g29
(g33
S'\x92\x0b\x00\x00\x00\x00\x00\x00'
p40
tp41
Rp42
sS'num_of_weight_per_layer'
p43
(lp44
g29
(g33
S'H\x00\x00\x00\x00\x00\x00\x00'
p45
tp46
Rp47
ag29
(g33
S'\x80\x04\x00\x00\x00\x00\x00\x00'
p48
tp49
Rp50
ag29
(g33
S'\x00\x12\x00\x00\x00\x00\x00\x00'
p51
tp52
Rp53
ag29
(g33
S'\x00\x10\x00\x00\x00\x00\x00\x00'
p54
tp55
Rp56
ag29
(g33
S'\x00\x80\x00\x00\x00\x00\x00\x00'
p57
tp58
Rp59
ag29
(g33
S'\x00\n\x00\x00\x00\x00\x00\x00'
p60
tp61
Rp62
asS'network_dir'
p63
S'/home/seulki/papers/MOBICOM_2020/VirtualBrain/network1'
p64
sS'num_of_weight'
p65
g29
(g33
S'\xc8\xb0\x00\x00\x00\x00\x00\x00'
p66
tp67
Rp68
sS'num_of_bias_per_layer'
p69
(lp70
I8
aI16
aI32
ag29
(g33
S'\x80\x00\x00\x00\x00\x00\x00\x00'
p71
tp72
Rp73
ag29
(g33
S'\x00\x01\x00\x00\x00\x00\x00\x00'
p74
tp75
Rp76
ag29
(g33
S'\n\x00\x00\x00\x00\x00\x00\x00'
p77
tp78
Rp79
asS'bias_base_name'
p80
S'bias_'
p81
sS'network_name'
p82
S'Network_1'
p83
sS'weight_base_name'
p84
S'weight_'
p85
sS'network_file_name'
p86
S'network1'
p87
sS'num_of_neuron_per_layer'
p88
(lp89
g9
a(lp90
I13
aI13
aI8
aa(lp91
I5
aI5
aI16
aa(lp92
I1
aI1
aI32
aag13
ag14
ag15
asbg83
tp93
a(I2
(i__main__
Network
p94
(dp95
g7
(lp96
(lp97
I61
aI13
aI1
aa(lp98
I12
aI6
aI1
aI8
aa(lp99
I6
aI3
aI8
aI16
aa(lp100
I128
aa(lp101
I256
aa(lp102
I35
aasg16
(lp103
S'input'
p104
aS'conv'
p105
aS'max_pool'
p106
ag105
ag106
aS'hidden'
p107
ag107
aS'output'
p108
asg23
S'/home/seulki/papers/MOBICOM_2020/VirtualBrain/network2/network2'
p109
sg25
Nsg2
I2
sg39
g29
(g33
S'|\x08\x00\x00\x00\x00\x00\x00'
p110
tp111
Rp112
sg28
g29
(g33
S'\xbb\x01\x00\x00\x00\x00\x00\x00'
p113
tp114
Rp115
sg43
(lp116
g29
(g33
S'@\x02\x00\x00\x00\x00\x00\x00'
p117
tp118
Rp119
ag29
(g33
S'\x00\t\x00\x00\x00\x00\x00\x00'
p120
tp121
Rp122
ag29
(g33
S'\x00P\x00\x00\x00\x00\x00\x00'
p123
tp124
Rp125
ag29
(g33
S'\x00\x80\x00\x00\x00\x00\x00\x00'
p126
tp127
Rp128
ag29
(g33
S'\x00#\x00\x00\x00\x00\x00\x00'
p129
tp130
Rp131
asg26
S'neuron_'
p132
sg63
S'/home/seulki/papers/MOBICOM_2020/VirtualBrain/network2'
p133
sg65
g29
(g33
S'@\xfe\x00\x00\x00\x00\x00\x00'
p134
tp135
Rp136
sg69
(lp137
I8
aI16
ag29
(g33
S'\x80\x00\x00\x00\x00\x00\x00\x00'
p138
tp139
Rp140
ag29
(g33
S'\x00\x01\x00\x00\x00\x00\x00\x00'
p141
tp142
Rp143
ag29
(g33
S'#\x00\x00\x00\x00\x00\x00\x00'
p144
tp145
Rp146
asg80
S'bias_'
p147
sg82
S'Network_2'
p148
sg84
S'weight_'
p149
sg86
S'network2'
p150
sg88
(lp151
g97
a(lp152
I25
aI4
aI8
aa(lp153
I10
aI1
aI16
aag100
ag101
ag102
asbg148
tp154
a(I3
(i__main__
Network
p155
(dp156
g7
(lp157
(lp158
I32
aI32
aI1
aa(lp159
I3
aI3
aI1
aI8
aa(lp160
I3
aI3
aI8
aI16
aa(lp161
I3
aI3
aI16
aI32
aa(lp162
I128
aa(lp163
I256
aa(lp164
I43
aasg16
(lp165
S'input'
p166
aS'conv'
p167
aS'max_pool'
p168
ag167
ag168
ag167
ag168
aS'hidden'
p169
ag169
aS'output'
p170
asg23
S'/home/seulki/papers/MOBICOM_2020/VirtualBrain/network3/network3'
p171
sg25
Nsg2
I3
sg26
S'neuron_'
p172
sg28
g29
(g33
S'\xe3\x01\x00\x00\x00\x00\x00\x00'
p173
tp174
Rp175
sg39
g29
(g33
S's\x0f\x00\x00\x00\x00\x00\x00'
p176
tp177
Rp178
sg43
(lp179
g29
(g33
S'H\x00\x00\x00\x00\x00\x00\x00'
p180
tp181
Rp182
ag29
(g33
S'\x80\x04\x00\x00\x00\x00\x00\x00'
p183
tp184
Rp185
ag29
(g33
S'\x00\x12\x00\x00\x00\x00\x00\x00'
p186
tp187
Rp188
ag29
(g33
S'\x00@\x00\x00\x00\x00\x00\x00'
p189
tp190
Rp191
ag29
(g33
S'\x00\x80\x00\x00\x00\x00\x00\x00'
p192
tp193
Rp194
ag29
(g33
S'\x00+\x00\x00\x00\x00\x00\x00'
p195
tp196
Rp197
asg63
S'/home/seulki/papers/MOBICOM_2020/VirtualBrain/network3'
p198
sg65
g29
(g33
S'\xc8\x01\x01\x00\x00\x00\x00\x00'
p199
tp200
Rp201
sg69
(lp202
I8
aI16
aI32
ag29
(g33
S'\x80\x00\x00\x00\x00\x00\x00\x00'
p203
tp204
Rp205
ag29
(g33
S'\x00\x01\x00\x00\x00\x00\x00\x00'
p206
tp207
Rp208
ag29
(g33
S'+\x00\x00\x00\x00\x00\x00\x00'
p209
tp210
Rp211
asg80
S'bias_'
p212
sg82
S'Network_3'
p213
sg84
S'weight_'
p214
sg86
S'network3'
p215
sg88
(lp216
g158
a(lp217
I15
aI15
aI8
aa(lp218
I6
aI6
aI16
aa(lp219
I2
aI2
aI32
aag162
ag163
ag164
asbg213
tp220
a(I4
(i__main__
Network
p221
(dp222
g7
(lp223
(lp224
I32
aI32
aI3
aa(lp225
I3
aI3
aI3
aI4
aa(lp226
I3
aI3
aI4
aI8
aa(lp227
I3
aI3
aI8
aI16
aa(lp228
I128
aa(lp229
I256
aa(lp230
I10
aasg16
(lp231
S'input'
p232
aS'conv'
p233
aS'max_pool'
p234
ag233
ag234
ag233
ag234
aS'hidden'
p235
ag235
aS'output'
p236
asg23
S'/home/seulki/papers/MOBICOM_2020/VirtualBrain/network4/network4'
p237
sg25
Nsg2
I4
sg39
g29
(g33
S'n\x12\x00\x00\x00\x00\x00\x00'
p238
tp239
Rp240
sg28
g29
(g33
S'\xa6\x01\x00\x00\x00\x00\x00\x00'
p241
tp242
Rp243
sg43
(lp244
g29
(g33
S'l\x00\x00\x00\x00\x00\x00\x00'
p245
tp246
Rp247
ag29
(g33
S' \x01\x00\x00\x00\x00\x00\x00'
p248
tp249
Rp250
ag29
(g33
S'\x80\x04\x00\x00\x00\x00\x00\x00'
p251
tp252
Rp253
ag29
(g33
S'\x00 \x00\x00\x00\x00\x00\x00'
p254
tp255
Rp256
ag29
(g33
S'\x00\x80\x00\x00\x00\x00\x00\x00'
p257
tp258
Rp259
ag29
(g33
S'\x00\n\x00\x00\x00\x00\x00\x00'
p260
tp261
Rp262
asg26
S'neuron_'
p263
sg63
S'/home/seulki/papers/MOBICOM_2020/VirtualBrain/network4'
p264
sg65
g29
(g33
S'\x0c\xb0\x00\x00\x00\x00\x00\x00'
p265
tp266
Rp267
sg69
(lp268
I4
aI8
aI16
ag29
(g33
S'\x80\x00\x00\x00\x00\x00\x00\x00'
p269
tp270
Rp271
ag29
(g33
S'\x00\x01\x00\x00\x00\x00\x00\x00'
p272
tp273
Rp274
ag29
(g33
S'\n\x00\x00\x00\x00\x00\x00\x00'
p275
tp276
Rp277
asg80
S'bias_'
p278
sg82
S'Network_4'
p279
sg84
S'weight_'
p280
sg86
S'network4'
p281
sg88
(lp282
g224
a(lp283
I15
aI15
aI4
aa(lp284
I6
aI6
aI8
aa(lp285
I2
aI2
aI16
aag228
ag229
ag230
asbg279
tp286
a(I5
(i__main__
Network
p287
(dp288
g7
(lp289
(lp290
I32
aI32
aI3
aa(lp291
I3
aI3
aI3
aI4
aa(lp292
I3
aI3
aI4
aI8
aa(lp293
I3
aI3
aI8
aI16
aa(lp294
I128
aa(lp295
I256
aa(lp296
I10
aasg16
(lp297
S'input'
p298
aS'conv'
p299
aS'max_pool'
p300
ag299
ag300
ag299
ag300
aS'hidden'
p301
ag301
aS'output'
p302
asg23
S'/home/seulki/papers/MOBICOM_2020/VirtualBrain/network5/network5'
p303
sg25
Nsg2
I5
sg26
S'neuron_'
p304
sg28
g29
(g33
S'\xa6\x01\x00\x00\x00\x00\x00\x00'
p305
tp306
Rp307
sg39
g29
(g33
S'n\x12\x00\x00\x00\x00\x00\x00'
p308
tp309
Rp310
sg43
(lp311
g29
(g33
S'l\x00\x00\x00\x00\x00\x00\x00'
p312
tp313
Rp314
ag29
(g33
S' \x01\x00\x00\x00\x00\x00\x00'
p315
tp316
Rp317
ag29
(g33
S'\x80\x04\x00\x00\x00\x00\x00\x00'
p318
tp319
Rp320
ag29
(g33
S'\x00 \x00\x00\x00\x00\x00\x00'
p321
tp322
Rp323
ag29
(g33
S'\x00\x80\x00\x00\x00\x00\x00\x00'
p324
tp325
Rp326
ag29
(g33
S'\x00\n\x00\x00\x00\x00\x00\x00'
p327
tp328
Rp329
asg63
S'/home/seulki/papers/MOBICOM_2020/VirtualBrain/network5'
p330
sg65
g29
(g33
S'\x0c\xb0\x00\x00\x00\x00\x00\x00'
p331
tp332
Rp333
sg69
(lp334
I4
aI8
aI16
ag29
(g33
S'\x80\x00\x00\x00\x00\x00\x00\x00'
p335
tp336
Rp337
ag29
(g33
S'\x00\x01\x00\x00\x00\x00\x00\x00'
p338
tp339
Rp340
ag29
(g33
S'\n\x00\x00\x00\x00\x00\x00\x00'
p341
tp342
Rp343
asg80
S'bias_'
p344
sg82
S'Network_5'
p345
sg84
S'weight_'
p346
sg86
S'network5'
p347
sg88
(lp348
g290
a(lp349
I15
aI15
aI4
aa(lp350
I6
aI6
aI8
aa(lp351
I2
aI2
aI16
aag294
ag295
ag296
asbg345
tp352
asb.